; Function Attrs: mustprogress nofree norecurse nosync nounwind willreturn memory(argmem: read) uwtable
define noundef i64 @_Z6atoilwPKw(ptr noundef readonly captures(none) %0) local_unnamed_addr #5 {
  %2 = load i32, ptr %0, align 4
  %3 = icmp eq i32 %2, 45
  %spec.select.idx = select i1 %3, i64 4, i64 0
  %spec.select = getelementptr inbounds nuw i8, ptr %0, i64 %spec.select.idx
  %4 = load i32, ptr %spec.select, align 4
  %5 = add i32 %4, -48
  %or.cond14 = icmp ult i32 %5, 10
  br i1 %or.cond14, label %.lr.ph, label %.critedge

.lr.ph:                                           ; preds = %1, %.lr.ph
  %6 = phi i32 [ %12, %.lr.ph ], [ %4, %1 ]
  %.016 = phi i64 [ %10, %.lr.ph ], [ 0, %1 ]
  %.115 = phi ptr [ %11, %.lr.ph ], [ %spec.select, %1 ]
  %7 = mul i64 %.016, 10
  %8 = add nsw i32 %6, -48
  %9 = zext nneg i32 %8 to i64
  %10 = add i64 %7, %9
  %11 = getelementptr inbounds nuw i8, ptr %.115, i64 4
  %12 = load i32, ptr %11, align 4
  %13 = add i32 %12, -48
  %or.cond = icmp ult i32 %13, 10
  br i1 %or.cond, label %.lr.ph, label %.critedge, !llvm.loop !21

.critedge:                                        ; preds = %.lr.ph, %1
  %.0.lcssa = phi i64 [ 0, %1 ], [ %10, %.lr.ph ]
  %14 = tail call i64 @llvm.abs.i64(i64 %.0.lcssa, i1 false)
  %15 = sub i64 0, %14
  %16 = select i1 %3, i64 %15, i64 %.0.lcssa
  ret i64 %16
}